(dp0
S'groupdict'
p1
(dp2
S'AllSystemPagesGroup'
p3
(iMoinMoin.wikigroup
Group
p4
(dp5
S'_members'
p6
(lp7
S'RecentChanges'
p8
aS'TitleIndex'
p9
aS'WordIndex'
p10
aS'SiteNavigation'
p11
aS'FindPage'
p12
aS'UserPreferences'
p13
aS'AbandonedPages'
p14
aS'OrphanedPages'
p15
aS'WantedPages'
p16
aS'EventStats'
p17
aS'EventStats/HitCounts'
p18
aS'EventStats/UserAgents'
p19
aS'PageSize'
p20
aS'InterWiki'
p21
aS'RandomPage'
p22
aS'PythonLanguage'
p23
aS'Python4Suite'
p24
aS'StructuredText'
p25
aS'SystemInfo'
p26
aS'WikiHomePage'
p27
aS'WikiName'
p28
aS'WikiSandBox'
p29
aS'WikiWikiWeb'
p30
aS'XsltVersion'
p31
aS'HelpContents'
p32
aS'HelpForBeginners'
p33
aS'HelpForDevelopers'
p34
aS'HelpIndex'
p35
aS'HelpMiscellaneous'
p36
aS'HelpMiscellaneous/ExperimentalFeatures'
p37
aS'HelpMiscellaneous/FrequentlyAskedQuestions'
p38
aS'HelpOnAccessControlLists'
p39
aS'HelpOnActions'
p40
aS'HelpOnActions/AttachFile'
p41
aS'HelpOnAdministration'
p42
aS'HelpOnConfiguration'
p43
aS'HelpOnConfiguration/CascadingStyleSheets'
p44
aS'HelpOnConfiguration/EmailSupport'
p45
aS'HelpOnConfiguration/SecurityPolicy'
p46
aS'HelpOnEditLocks'
p47
aS'HelpOnEditing'
p48
aS'HelpOnEditing/SubPages'
p49
aS'HelpOnFormatting'
p50
aS'HelpOnHeadlines'
p51
aS'HelpOnInstalling'
p52
aS'HelpOnInstalling/ApacheOnMacOsx'
p53
aS'HelpOnInstalling/ApacheOnUnix'
p54
aS'HelpOnInstalling/ApacheOnWin32'
p55
aS'HelpOnInstalling/BasicInstallation'
p56
aS'HelpOnInstalling/InternetInformationServer'
p57
aS'HelpOnInstalling/TroubleShooting'
p58
aS'HelpOnLinking'
p59
aS'HelpOnLists'
p60
aS'HelpOnMacros'
p61
aS'HelpOnMacros/Include'
p62
aS'HelpOnMacros/MailTo'
p63
aS'HelpOnNavigation'
p64
aS'HelpOnPageCreation'
p65
aS'HelpOnPageDeletion'
p66
aS'HelpOnProcessingInstructions'
p67
aS'HelpOnProcessors'
p68
aS'HelpOnRules'
p69
aS'HelpOnSkins'
p70
aS'HelpOnSlideShows'
p71
aS'HelpOnSlideShows/000 Introduction'
p72
aS'HelpOnSlideShows/100 Creating the slides'
p73
aS'HelpOnSlideShows/900 Last but not least: Running your presentation.'
p74
aS'HelpOnSmileys'
p75
aS'HelpOnSpellCheck'
p76
aS'HelpOnTables'
p77
aS'HelpOnUpdating'
p78
aS'HelpOnUserPreferences'
p79
aS'HelpOnXmlPages'
p80
aS'HelpTemplate'
p81
aS'CategoryCategory'
p82
aS'CategoryHomepage'
p83
aS'SystemSeitenGruppe'
p84
aS'GroupePagesSyst\xe8me'
p85
aS'SystemSiderGruppe'
p86
aS'GruppoPagineSistema'
p87
asS'name'
p88
g3
sbsS'SystemPagesGroup'
p89
(iMoinMoin.wikigroup
Group
p90
(dp91
g6
(lp92
g8
ag9
ag10
ag11
ag12
ag13
ag14
ag15
ag16
ag17
ag18
ag19
ag20
ag21
ag22
ag23
ag24
ag25
ag26
ag27
ag28
ag29
ag30
ag31
ag32
ag33
ag34
ag35
ag36
ag37
ag38
ag39
ag40
ag41
ag42
ag43
ag44
ag45
ag46
ag47
ag48
ag49
ag50
ag51
ag52
ag53
ag54
ag55
ag56
ag57
ag58
ag59
ag60
ag61
ag62
ag63
ag64
ag65
ag66
ag67
ag68
ag69
ag70
ag71
ag72
ag73
ag74
ag75
ag76
ag77
ag78
ag79
ag80
ag81
ag82
ag83
asg88
g89
sbssS'timestamp'
p93
F1116890670.5966311
sS'picklever'
p94
I1
s.